; Function Attrs: mustprogress uwtable
define hidden noundef ptr @_ZN7datalog11instruction7mk_moveEjj(i32 noundef %0, i32 noundef %1) local_unnamed_addr #3 align 2 personality ptr @__gxx_personality_v0 {
  %3 = tail call noalias noundef ptr @_ZN6memory8allocateEm(i64 noundef 88)
  %4 = getelementptr inbounds nuw i8, ptr %3, i64 8
  %5 = getelementptr inbounds nuw i8, ptr %3, i64 24
  tail call void @llvm.memset.p0.i64(ptr noundef nonnull align 8 dereferenceable(33) %4, i8 0, i64 16, i1 false)
  tail call void @_ZN7datalog5costsC1Ev(ptr noundef nonnull align 4 dereferenceable(8) %5)
  %6 = getelementptr inbounds nuw i8, ptr %3, i64 32
  tail call void @_ZN7datalog5costsC1Ev(ptr noundef nonnull align 4 dereferenceable(8) %6)
  %7 = getelementptr inbounds nuw i8, ptr %3, i64 40
  store i8 0, ptr %7, align 8, !tbaa !294
  store ptr getelementptr inbounds nuw inrange(-16, 56) (i8, ptr @_ZTVN7datalog11instructionE, i64 16), ptr %3, align 8, !tbaa !43
  %8 = invoke noalias noundef ptr @_ZN6memory8allocateEm(i64 noundef 192)
          to label %.lr.ph.i.i.i.i.i.i.i.i.i.i.i unwind label %12

.lr.ph.i.i.i.i.i.i.i.i.i.i.i:                     ; preds = %2, %.lr.ph.i.i.i.i.i.i.i.i.i.i.i
  %.08.i.i.i.i.i.i.i.i.i.i.i = phi ptr [ %11, %.lr.ph.i.i.i.i.i.i.i.i.i.i.i ], [ %8, %2 ]
  %.057.i.i.i.i.i.i.i.i.i.i.i = phi i32 [ %10, %.lr.ph.i.i.i.i.i.i.i.i.i.i.i ], [ 8, %2 ]
  store i32 0, ptr %.08.i.i.i.i.i.i.i.i.i.i.i, align 8, !tbaa !296
  %9 = getelementptr inbounds nuw i8, ptr %.08.i.i.i.i.i.i.i.i.i.i.i, i64 4
  store i32 0, ptr %9, align 4, !tbaa !300
  %10 = add nsw i32 %.057.i.i.i.i.i.i.i.i.i.i.i, -1
  %11 = getelementptr inbounds nuw i8, ptr %.08.i.i.i.i.i.i.i.i.i.i.i, i64 24
  %.not.i.i.i.i.i.i.i.i.i.i.i = icmp eq i32 %10, 0
  br i1 %.not.i.i.i.i.i.i.i.i.i.i.i, label %_ZN7datalog16instr_clone_moveC2Ebjj.exit, label %.lr.ph.i.i.i.i.i.i.i.i.i.i.i, !llvm.loop !301

12:                                               ; preds = %2
  %13 = landingpad { ptr, i32 }
          cleanup
  tail call void @_ZN7datalog16accounted_objectD2Ev(ptr noundef nonnull align 8 dereferenceable(33) %4) #25
  resume { ptr, i32 } %13

_ZN7datalog16instr_clone_moveC2Ebjj.exit:         ; preds = %.lr.ph.i.i.i.i.i.i.i.i.i.i.i
  %14 = getelementptr inbounds nuw i8, ptr %3, i64 48
  store ptr %8, ptr %14, align 8, !tbaa !302
  %15 = getelementptr inbounds nuw i8, ptr %3, i64 56
  store i32 8, ptr %15, align 8, !tbaa !305
  %16 = getelementptr inbounds nuw i8, ptr %3, i64 60
  store i32 0, ptr %16, align 4, !tbaa !306
  %17 = getelementptr inbounds nuw i8, ptr %3, i64 64
  store i32 0, ptr %17, align 8, !tbaa !307
  store ptr getelementptr inbounds nuw inrange(-16, 56) (i8, ptr @_ZTVN7datalog16instr_clone_moveE, i64 16), ptr %3, align 8, !tbaa !43
  %18 = getelementptr inbounds nuw i8, ptr %3, i64 72
  store i8 0, ptr %18, align 8, !tbaa !318
  %19 = getelementptr inbounds nuw i8, ptr %3, i64 76
  store i32 %0, ptr %19, align 4, !tbaa !320
  %20 = getelementptr inbounds nuw i8, ptr %3, i64 80
  store i32 %1, ptr %20, align 8, !tbaa !321
  ret ptr %3
}